target datalayout = "e-m:e-p270:32:32-p271:32:32-p272:64:64-i64:64-i128:128-f80:128-n8:16:32:64-S128"
target triple = "x86_64-pc-linux-gnu"

%class.QString = type { %struct.QArrayDataPointer.4 }
%struct.QArrayDataPointer.4 = type { ptr, ptr, i64 }
%class.QTreeWidgetItem.base = type <{ ptr, i32, [4 x i8], %class.QList, ptr, ptr, ptr, %class.QList.0, %class.QFlags }>
%class.QList = type { %struct.QArrayDataPointer }
%struct.QArrayDataPointer = type { ptr, ptr, i64 }
%class.QList.0 = type { %struct.QArrayDataPointer.3 }
%struct.QArrayDataPointer.3 = type { ptr, ptr, i64 }
%class.QFlags = type { i32 }
%class.LBMLBTRMSourceTransportEntry = type { %class.QTreeWidgetItem.base, %class.QString, i64, i64, i64, i64, i64, i64, i64, i64, i64, %struct.nstime_t, i8, %struct.nstime_t, %class.QMap.8, %class.QMap.8, %class.QMap.10, %class.QMap.8 }
%struct.nstime_t = type { i64, i32 }
%class.QMap.10 = type { %"class.QtPrivate::QExplicitlySharedDataPointerV2.11" }
%"class.QtPrivate::QExplicitlySharedDataPointerV2.11" = type { ptr }
%class.QMap.8 = type { %"class.QtPrivate::QExplicitlySharedDataPointerV2.9" }
%"class.QtPrivate::QExplicitlySharedDataPointerV2.9" = type { ptr }
%class.Ui_LBMLBTRMTransportDialog = type { ptr, ptr, ptr, ptr, ptr, ptr, ptr, ptr, ptr, ptr, ptr, ptr, ptr, ptr, ptr, ptr, ptr, ptr, ptr, ptr, ptr, ptr, ptr, ptr, ptr, ptr, ptr, ptr, ptr, ptr, ptr, ptr, ptr, ptr, ptr, ptr, ptr, ptr, ptr, ptr, ptr, ptr, ptr, ptr, ptr, ptr, ptr, ptr, ptr, ptr, ptr, ptr, ptr, ptr, ptr, ptr, ptr, ptr, ptr, ptr }
%class.LBMLBTRMTransportDialog = type { %class.QDialog, ptr, ptr, ptr, ptr, ptr, ptr, ptr }
%class.QDialog = type { %class.QWidget }
%class.QWidget = type { %class.QObject, %class.QPaintDevice.base, ptr }
%class.QObject = type { ptr, %class.QScopedPointer }
%class.QScopedPointer = type { ptr }
%class.QPaintDevice.base = type <{ ptr, i16 }>

@_ZTI15QTreeWidgetItem = external constant ptr
@_ZTI28LBMLBTRMSourceTransportEntry = constant { ptr, ptr, ptr } { ptr getelementptr inbounds (ptr, ptr @_ZTVN10__cxxabiv120__si_class_type_infoE, i64 2), ptr @_ZTS28LBMLBTRMSourceTransportEntry, ptr @_ZTI15QTreeWidgetItem }, align 8

; Function Attrs: mustprogress uwtable
define void @_ZN23LBMLBTRMTransportDialog18sourcesItemClickedEP15QTreeWidgetItemi(ptr noundef nonnull align 8 dereferenceable(96) %0, ptr noundef %1, i32 noundef %2) #0 align 2 {
  %4 = alloca ptr, align 8
  %5 = alloca ptr, align 8
  %6 = alloca i32, align 4
  %7 = alloca ptr, align 8
  %8 = alloca i32, align 4
  store ptr %0, ptr %4, align 8
  store ptr %1, ptr %5, align 8
  store i32 %2, ptr %6, align 4
  %9 = load ptr, ptr %4, align 8
  %10 = load ptr, ptr %5, align 8
  %11 = icmp eq ptr %10, null
  br i1 %11, label %14, label %12

12:                                               ; preds = %3
  %13 = call ptr @__dynamic_cast(ptr %10, ptr @_ZTI15QTreeWidgetItem, ptr @_ZTI28LBMLBTRMSourceTransportEntry, i64 0) #15
  br label %15

14:                                               ; preds = %3
  br label %15

15:                                               ; preds = %14, %12
  %16 = phi ptr [ %13, %12 ], [ null, %14 ]
  store ptr %16, ptr %7, align 8
  call void @_ZN23LBMLBTRMTransportDialog18resetSourcesDetailEv(ptr noundef nonnull align 8 dereferenceable(96) %9)
  %17 = load ptr, ptr %7, align 8
  %18 = icmp eq ptr %17, null
  br i1 %18, label %19, label %20

19:                                               ; preds = %15
  br label %44

20:                                               ; preds = %15
  %21 = load ptr, ptr %7, align 8
  %22 = getelementptr inbounds %class.LBMLBTRMTransportDialog, ptr %9, i32 0, i32 4
  store ptr %21, ptr %22, align 8
  %23 = getelementptr inbounds %class.LBMLBTRMTransportDialog, ptr %9, i32 0, i32 1
  %24 = load ptr, ptr %23, align 8
  %25 = getelementptr inbounds %class.Ui_LBMLBTRMTransportDialog, ptr %24, i32 0, i32 35
  %26 = load ptr, ptr %25, align 8
  %27 = load ptr, ptr %7, align 8
  %28 = getelementptr inbounds %class.LBMLBTRMSourceTransportEntry, ptr %27, i32 0, i32 1
  call void @_ZN6QLabel7setTextERK7QString(ptr noundef nonnull align 8 dereferenceable(40) %26, ptr noundef nonnull align 8 dereferenceable(24) %28)
  %29 = getelementptr inbounds %class.LBMLBTRMTransportDialog, ptr %9, i32 0, i32 1
  %30 = load ptr, ptr %29, align 8
  %31 = getelementptr inbounds %class.Ui_LBMLBTRMTransportDialog, ptr %30, i32 0, i32 33
  %32 = load ptr, ptr %31, align 8
  %33 = call noundef i32 @_ZNK9QComboBox12currentIndexEv(ptr noundef nonnull align 8 dereferenceable(40) %32)
  store i32 %33, ptr %8, align 4
  %34 = load i32, ptr %8, align 4
  switch i32 %34, label %43 [
    i32 0, label %35
    i32 1, label %37
    i32 2, label %39
    i32 3, label %41
  ]

35:                                               ; preds = %20
  %36 = load ptr, ptr %7, align 8
  call void @_ZN23LBMLBTRMTransportDialog21loadSourceDataDetailsEP28LBMLBTRMSourceTransportEntry(ptr noundef nonnull align 8 dereferenceable(96) %9, ptr noundef %36)
  br label %44

37:                                               ; preds = %20
  %38 = load ptr, ptr %7, align 8
  call void @_ZN23LBMLBTRMTransportDialog23loadSourceRXDataDetailsEP28LBMLBTRMSourceTransportEntry(ptr noundef nonnull align 8 dereferenceable(96) %9, ptr noundef %38)
  br label %44

39:                                               ; preds = %20
  %40 = load ptr, ptr %7, align 8
  call void @_ZN23LBMLBTRMTransportDialog20loadSourceNCFDetailsEP28LBMLBTRMSourceTransportEntry(ptr noundef nonnull align 8 dereferenceable(96) %9, ptr noundef %40)
  br label %44

41:                                               ; preds = %20
  %42 = load ptr, ptr %7, align 8
  call void @_ZN23LBMLBTRMTransportDialog19loadSourceSMDetailsEP28LBMLBTRMSourceTransportEntry(ptr noundef nonnull align 8 dereferenceable(96) %9, ptr noundef %42)
  br label %44

43:                                               ; preds = %20
  br label %44

44:                                               ; preds = %43, %41, %39, %37, %35, %19
  ret void
}