; Function Attrs: mustprogress uwtable
define void @_ZN23LBMLBTRMTransportDialog18sourcesItemClickedEP15QTreeWidgetItemi(ptr nocapture noundef nonnull align 8 dereferenceable(96) %0, ptr noundef %1, i32 %2) local_unnamed_addr #0 align 2 {
  %4 = icmp eq ptr %1, null
  br i1 %4, label %.thread, label %5

.thread:                                          ; preds = %3
  tail call void @_ZN23LBMLBTRMTransportDialog18resetSourcesDetailEv(ptr noundef nonnull align 8 dereferenceable(96) %0)
  br label %23

5:                                                ; preds = %3
  %6 = tail call ptr @__dynamic_cast(ptr nonnull %1, ptr nonnull @_ZTI15QTreeWidgetItem, ptr nonnull @_ZTI28LBMLBTRMSourceTransportEntry, i64 0) #17
  tail call void @_ZN23LBMLBTRMTransportDialog18resetSourcesDetailEv(ptr noundef nonnull align 8 dereferenceable(96) %0)
  %7 = icmp eq ptr %6, null
  br i1 %7, label %23, label %8

8:                                                ; preds = %5
  %9 = getelementptr inbounds i8, ptr %0, i64 64
  store ptr %6, ptr %9, align 8
  %10 = getelementptr inbounds i8, ptr %0, i64 40
  %11 = load ptr, ptr %10, align 8
  %12 = getelementptr inbounds i8, ptr %11, i64 280
  %13 = load ptr, ptr %12, align 8
  %14 = getelementptr inbounds i8, ptr %6, i64 96
  tail call void @_ZN6QLabel7setTextERK7QString(ptr noundef nonnull align 8 dereferenceable(40) %13, ptr noundef nonnull align 8 dereferenceable(24) %14)
  %15 = load ptr, ptr %10, align 8
  %16 = getelementptr inbounds i8, ptr %15, i64 264
  %17 = load ptr, ptr %16, align 8
  %18 = tail call noundef i32 @_ZNK9QComboBox12currentIndexEv(ptr noundef nonnull align 8 dereferenceable(40) %17)
  switch i32 %18, label %23 [
    i32 0, label %19
    i32 1, label %20
    i32 2, label %21
    i32 3, label %22
  ]

19:                                               ; preds = %8
  tail call void @_ZN23LBMLBTRMTransportDialog21loadSourceDataDetailsEP28LBMLBTRMSourceTransportEntry(ptr noundef nonnull align 8 dereferenceable(96) %0, ptr noundef nonnull %6)
  br label %23

20:                                               ; preds = %8
  tail call void @_ZN23LBMLBTRMTransportDialog23loadSourceRXDataDetailsEP28LBMLBTRMSourceTransportEntry(ptr noundef nonnull align 8 dereferenceable(96) %0, ptr noundef nonnull %6)
  br label %23

21:                                               ; preds = %8
  tail call void @_ZN23LBMLBTRMTransportDialog20loadSourceNCFDetailsEP28LBMLBTRMSourceTransportEntry(ptr noundef nonnull align 8 dereferenceable(96) %0, ptr noundef nonnull %6)
  br label %23

22:                                               ; preds = %8
  tail call void @_ZN23LBMLBTRMTransportDialog19loadSourceSMDetailsEP28LBMLBTRMSourceTransportEntry(ptr noundef nonnull align 8 dereferenceable(96) %0, ptr noundef nonnull %6)
  br label %23

23:                                               ; preds = %.thread, %8, %5, %22, %21, %20, %19
  ret void
}